target datalayout = "e-m:e-p270:32:32-p271:32:32-p272:64:64-i64:64-i128:128-f80:128-n8:16:32:64-S128"
target triple = "x86_64-pc-linux-gnu"

%struct.AVChannelLayout = type { i32, i32, %union.anon.1, ptr }
%union.anon.1 = type { i64 }
%struct.AVRational = type { i32, i32 }
%struct.AVFrame = type { [8 x ptr], [8 x i32], ptr, i32, i32, i32, i32, i32, %struct.AVRational, i64, i64, %struct.AVRational, i32, ptr, i32, i32, [8 x ptr], ptr, i32, ptr, i32, i32, i32, i32, i32, i32, i32, i64, ptr, i32, ptr, ptr, i64, i64, i64, i64, ptr, %struct.AVChannelLayout, i64 }
%union.ColorFloat = type { %struct.RGBFloat }
%struct.RGBFloat = type { float, float, float }
%struct.YUVFloat = type { float, float, float }

; Function Attrs: nounwind uwtable
define internal void @update_sono_yuv(ptr noundef %0, ptr noundef %1, i32 noundef %2) #1 {
  %4 = alloca ptr, align 8
  %5 = alloca ptr, align 8
  %6 = alloca i32, align 4
  %7 = alloca i32, align 4
  %8 = alloca i32, align 4
  %9 = alloca i32, align 4
  %10 = alloca ptr, align 8
  %11 = alloca ptr, align 8
  %12 = alloca ptr, align 8
  store ptr %0, ptr %4, align 8, !tbaa !59
  store ptr %1, ptr %5, align 8, !tbaa !159
  store i32 %2, ptr %6, align 4, !tbaa !50
  call void @llvm.lifetime.start.p0(i64 4, ptr %7) #12
  call void @llvm.lifetime.start.p0(i64 4, ptr %8) #12
  %13 = load ptr, ptr %4, align 8, !tbaa !59
  %14 = getelementptr inbounds nuw %struct.AVFrame, ptr %13, i32 0, i32 6
  %15 = load i32, ptr %14, align 4, !tbaa !149
  store i32 %15, ptr %8, align 4, !tbaa !50
  call void @llvm.lifetime.start.p0(i64 4, ptr %9) #12
  %16 = load ptr, ptr %4, align 8, !tbaa !59
  %17 = getelementptr inbounds nuw %struct.AVFrame, ptr %16, i32 0, i32 3
  %18 = load i32, ptr %17, align 8, !tbaa !160
  store i32 %18, ptr %9, align 4, !tbaa !50
  call void @llvm.lifetime.start.p0(i64 8, ptr %10) #12
  %19 = load ptr, ptr %4, align 8, !tbaa !59
  %20 = getelementptr inbounds nuw %struct.AVFrame, ptr %19, i32 0, i32 0
  %21 = getelementptr inbounds [8 x ptr], ptr %20, i64 0, i64 0
  %22 = load ptr, ptr %21, align 8, !tbaa !123
  %23 = load i32, ptr %6, align 4, !tbaa !50
  %24 = load ptr, ptr %4, align 8, !tbaa !59
  %25 = getelementptr inbounds nuw %struct.AVFrame, ptr %24, i32 0, i32 1
  %26 = getelementptr inbounds [8 x i32], ptr %25, i64 0, i64 0
  %27 = load i32, ptr %26, align 8, !tbaa !50
  %28 = mul nsw i32 %23, %27
  %29 = sext i32 %28 to i64
  %30 = getelementptr inbounds i8, ptr %22, i64 %29
  store ptr %30, ptr %10, align 8, !tbaa !123
  call void @llvm.lifetime.start.p0(i64 8, ptr %11) #12
  %31 = load ptr, ptr %4, align 8, !tbaa !59
  %32 = getelementptr inbounds nuw %struct.AVFrame, ptr %31, i32 0, i32 0
  %33 = getelementptr inbounds [8 x ptr], ptr %32, i64 0, i64 1
  %34 = load ptr, ptr %33, align 8, !tbaa !123
  %35 = load i32, ptr %6, align 4, !tbaa !50
  %36 = load ptr, ptr %4, align 8, !tbaa !59
  %37 = getelementptr inbounds nuw %struct.AVFrame, ptr %36, i32 0, i32 1
  %38 = getelementptr inbounds [8 x i32], ptr %37, i64 0, i64 1
  %39 = load i32, ptr %38, align 4, !tbaa !50
  %40 = mul nsw i32 %35, %39
  %41 = sext i32 %40 to i64
  %42 = getelementptr inbounds i8, ptr %34, i64 %41
  store ptr %42, ptr %11, align 8, !tbaa !123
  call void @llvm.lifetime.start.p0(i64 8, ptr %12) #12
  %43 = load ptr, ptr %4, align 8, !tbaa !59
  %44 = getelementptr inbounds nuw %struct.AVFrame, ptr %43, i32 0, i32 0
  %45 = getelementptr inbounds [8 x ptr], ptr %44, i64 0, i64 2
  %46 = load ptr, ptr %45, align 8, !tbaa !123
  %47 = load i32, ptr %6, align 4, !tbaa !50
  %48 = load ptr, ptr %4, align 8, !tbaa !59
  %49 = getelementptr inbounds nuw %struct.AVFrame, ptr %48, i32 0, i32 1
  %50 = getelementptr inbounds [8 x i32], ptr %49, i64 0, i64 2
  %51 = load i32, ptr %50, align 8, !tbaa !50
  %52 = mul nsw i32 %47, %51
  %53 = sext i32 %52 to i64
  %54 = getelementptr inbounds i8, ptr %46, i64 %53
  store ptr %54, ptr %12, align 8, !tbaa !123
  store i32 0, ptr %7, align 4, !tbaa !50
  br label %55

55:                                               ; preds = %133, %3
  %56 = load i32, ptr %7, align 4, !tbaa !50
  %57 = load i32, ptr %9, align 4, !tbaa !50
  %58 = icmp slt i32 %56, %57
  br i1 %58, label %59, label %136

59:                                               ; preds = %55
  %60 = load ptr, ptr %5, align 8, !tbaa !159
  %61 = load i32, ptr %7, align 4, !tbaa !50
  %62 = sext i32 %61 to i64
  %63 = getelementptr inbounds %union.ColorFloat, ptr %60, i64 %62
  %64 = getelementptr inbounds nuw %struct.YUVFloat, ptr %63, i32 0, i32 0
  %65 = load float, ptr %64, align 4, !tbaa !161
  %66 = fadd nsz float %65, 1.600000e+01
  %67 = call i64 @llvm.lrint.i64.f32(float %66)
  %68 = trunc i64 %67 to i8
  %69 = load ptr, ptr %10, align 8, !tbaa !123
  %70 = getelementptr inbounds nuw i8, ptr %69, i32 1
  store ptr %70, ptr %10, align 8, !tbaa !123
  store i8 %68, ptr %69, align 1, !tbaa !161
  %71 = load ptr, ptr %5, align 8, !tbaa !159
  %72 = load i32, ptr %7, align 4, !tbaa !50
  %73 = sext i32 %72 to i64
  %74 = getelementptr inbounds %union.ColorFloat, ptr %71, i64 %73
  %75 = getelementptr inbounds nuw %struct.YUVFloat, ptr %74, i32 0, i32 1
  %76 = load float, ptr %75, align 4, !tbaa !161
  %77 = fadd nsz float %76, 1.280000e+02
  %78 = call i64 @llvm.lrint.i64.f32(float %77)
  %79 = trunc i64 %78 to i8
  %80 = load ptr, ptr %11, align 8, !tbaa !123
  %81 = getelementptr inbounds nuw i8, ptr %80, i32 1
  store ptr %81, ptr %11, align 8, !tbaa !123
  store i8 %79, ptr %80, align 1, !tbaa !161
  %82 = load ptr, ptr %5, align 8, !tbaa !159
  %83 = load i32, ptr %7, align 4, !tbaa !50
  %84 = sext i32 %83 to i64
  %85 = getelementptr inbounds %union.ColorFloat, ptr %82, i64 %84
  %86 = getelementptr inbounds nuw %struct.YUVFloat, ptr %85, i32 0, i32 2
  %87 = load float, ptr %86, align 4, !tbaa !161
  %88 = fadd nsz float %87, 1.280000e+02
  %89 = call i64 @llvm.lrint.i64.f32(float %88)
  %90 = trunc i64 %89 to i8
  %91 = load ptr, ptr %12, align 8, !tbaa !123
  %92 = getelementptr inbounds nuw i8, ptr %91, i32 1
  store ptr %92, ptr %12, align 8, !tbaa !123
  store i8 %90, ptr %91, align 1, !tbaa !161
  %93 = load ptr, ptr %5, align 8, !tbaa !159
  %94 = load i32, ptr %7, align 4, !tbaa !50
  %95 = add nsw i32 %94, 1
  %96 = sext i32 %95 to i64
  %97 = getelementptr inbounds %union.ColorFloat, ptr %93, i64 %96
  %98 = getelementptr inbounds nuw %struct.YUVFloat, ptr %97, i32 0, i32 0
  %99 = load float, ptr %98, align 4, !tbaa !161
  %100 = fadd nsz float %99, 1.600000e+01
  %101 = call i64 @llvm.lrint.i64.f32(float %100)
  %102 = trunc i64 %101 to i8
  %103 = load ptr, ptr %10, align 8, !tbaa !123
  %104 = getelementptr inbounds nuw i8, ptr %103, i32 1
  store ptr %104, ptr %10, align 8, !tbaa !123
  store i8 %102, ptr %103, align 1, !tbaa !161
  %105 = load i32, ptr %8, align 4, !tbaa !50
  %106 = icmp eq i32 %105, 5
  br i1 %106, label %107, label %132

107:                                              ; preds = %59
  %108 = load ptr, ptr %5, align 8, !tbaa !159
  %109 = load i32, ptr %7, align 4, !tbaa !50
  %110 = add nsw i32 %109, 1
  %111 = sext i32 %110 to i64
  %112 = getelementptr inbounds %union.ColorFloat, ptr %108, i64 %111
  %113 = getelementptr inbounds nuw %struct.YUVFloat, ptr %112, i32 0, i32 1
  %114 = load float, ptr %113, align 4, !tbaa !161
  %115 = fadd nsz float %114, 1.280000e+02
  %116 = call i64 @llvm.lrint.i64.f32(float %115)
  %117 = trunc i64 %116 to i8
  %118 = load ptr, ptr %11, align 8, !tbaa !123
  %119 = getelementptr inbounds nuw i8, ptr %118, i32 1
  store ptr %119, ptr %11, align 8, !tbaa !123
  store i8 %117, ptr %118, align 1, !tbaa !161
  %120 = load ptr, ptr %5, align 8, !tbaa !159
  %121 = load i32, ptr %7, align 4, !tbaa !50
  %122 = add nsw i32 %121, 1
  %123 = sext i32 %122 to i64
  %124 = getelementptr inbounds %union.ColorFloat, ptr %120, i64 %123
  %125 = getelementptr inbounds nuw %struct.YUVFloat, ptr %124, i32 0, i32 2
  %126 = load float, ptr %125, align 4, !tbaa !161
  %127 = fadd nsz float %126, 1.280000e+02
  %128 = call i64 @llvm.lrint.i64.f32(float %127)
  %129 = trunc i64 %128 to i8
  %130 = load ptr, ptr %12, align 8, !tbaa !123
  %131 = getelementptr inbounds nuw i8, ptr %130, i32 1
  store ptr %131, ptr %12, align 8, !tbaa !123
  store i8 %129, ptr %130, align 1, !tbaa !161
  br label %132

132:                                              ; preds = %107, %59
  br label %133

133:                                              ; preds = %132
  %134 = load i32, ptr %7, align 4, !tbaa !50
  %135 = add nsw i32 %134, 2
  store i32 %135, ptr %7, align 4, !tbaa !50
  br label %55, !llvm.loop !180

136:                                              ; preds = %55
  call void @llvm.lifetime.end.p0(i64 8, ptr %12) #12
  call void @llvm.lifetime.end.p0(i64 8, ptr %11) #12
  call void @llvm.lifetime.end.p0(i64 8, ptr %10) #12
  call void @llvm.lifetime.end.p0(i64 4, ptr %9) #12
  call void @llvm.lifetime.end.p0(i64 4, ptr %8) #12
  call void @llvm.lifetime.end.p0(i64 4, ptr %7) #12
  ret void
}