; Function Attrs: nofree norecurse nosync nounwind memory(write, argmem: readwrite, inaccessiblemem: none) uwtable
define internal void @update_sono_yuv(ptr noundef readonly captures(none) %0, ptr noundef readonly captures(none) %1, i32 noundef %2) #8 {
  %4 = getelementptr inbounds nuw i8, ptr %0, i64 104
  %5 = load i32, ptr %4, align 8, !tbaa !147
  %6 = icmp sgt i32 %5, 0
  br i1 %6, label %.lr.ph, label %._crit_edge

.lr.ph:                                           ; preds = %3
  %7 = getelementptr inbounds nuw i8, ptr %0, i64 16
  %8 = load ptr, ptr %7, align 8, !tbaa !130
  %9 = getelementptr inbounds nuw i8, ptr %0, i64 72
  %10 = load i32, ptr %9, align 8, !tbaa !143
  %11 = mul nsw i32 %10, %2
  %12 = sext i32 %11 to i64
  %13 = getelementptr inbounds i8, ptr %8, i64 %12
  %14 = getelementptr inbounds nuw i8, ptr %0, i64 8
  %15 = load ptr, ptr %14, align 8, !tbaa !130
  %16 = getelementptr inbounds nuw i8, ptr %0, i64 68
  %17 = load i32, ptr %16, align 4, !tbaa !143
  %18 = mul nsw i32 %17, %2
  %19 = sext i32 %18 to i64
  %20 = getelementptr inbounds i8, ptr %15, i64 %19
  %21 = load ptr, ptr %0, align 8, !tbaa !130
  %22 = getelementptr inbounds nuw i8, ptr %0, i64 64
  %23 = load i32, ptr %22, align 8, !tbaa !143
  %24 = mul nsw i32 %23, %2
  %25 = sext i32 %24 to i64
  %26 = getelementptr inbounds i8, ptr %21, i64 %25
  %27 = getelementptr inbounds nuw i8, ptr %0, i64 116
  %28 = load i32, ptr %27, align 4, !tbaa !137
  %29 = icmp eq i32 %28, 5
  %30 = zext nneg i32 %5 to i64
  br i1 %29, label %.lr.ph.split.us, label %.lr.ph.split

.lr.ph.split.us:                                  ; preds = %.lr.ph, %.lr.ph.split.us
  %indvars.iv42 = phi i64 [ %indvars.iv.next43, %.lr.ph.split.us ], [ 0, %.lr.ph ]
  %.039.us = phi ptr [ %66, %.lr.ph.split.us ], [ %13, %.lr.ph ]
  %.03238.us = phi ptr [ %60, %.lr.ph.split.us ], [ %20, %.lr.ph ]
  %.03437.us = phi ptr [ %54, %.lr.ph.split.us ], [ %26, %.lr.ph ]
  %31 = getelementptr inbounds nuw %union.ColorFloat, ptr %1, i64 %indvars.iv42
  %32 = load float, ptr %31, align 4, !tbaa !148
  %33 = fadd nsz float %32, 1.600000e+01
  %34 = tail call i64 @llvm.lrint.i64.f32(float %33)
  %35 = trunc i64 %34 to i8
  %36 = getelementptr inbounds nuw i8, ptr %.03437.us, i64 1
  store i8 %35, ptr %.03437.us, align 1, !tbaa !148
  %37 = getelementptr inbounds nuw i8, ptr %31, i64 4
  %38 = load float, ptr %37, align 4, !tbaa !148
  %39 = fadd nsz float %38, 1.280000e+02
  %40 = tail call i64 @llvm.lrint.i64.f32(float %39)
  %41 = trunc i64 %40 to i8
  %42 = getelementptr inbounds nuw i8, ptr %.03238.us, i64 1
  store i8 %41, ptr %.03238.us, align 1, !tbaa !148
  %43 = getelementptr inbounds nuw i8, ptr %31, i64 8
  %44 = load float, ptr %43, align 4, !tbaa !148
  %45 = fadd nsz float %44, 1.280000e+02
  %46 = tail call i64 @llvm.lrint.i64.f32(float %45)
  %47 = trunc i64 %46 to i8
  %48 = getelementptr inbounds nuw i8, ptr %.039.us, i64 1
  store i8 %47, ptr %.039.us, align 1, !tbaa !148
  %49 = getelementptr inbounds nuw i8, ptr %31, i64 12
  %50 = load float, ptr %49, align 4, !tbaa !148
  %51 = fadd nsz float %50, 1.600000e+01
  %52 = tail call i64 @llvm.lrint.i64.f32(float %51)
  %53 = trunc i64 %52 to i8
  %54 = getelementptr inbounds nuw i8, ptr %.03437.us, i64 2
  store i8 %53, ptr %36, align 1, !tbaa !148
  %55 = getelementptr inbounds nuw i8, ptr %31, i64 16
  %56 = load float, ptr %55, align 4, !tbaa !148
  %57 = fadd nsz float %56, 1.280000e+02
  %58 = tail call i64 @llvm.lrint.i64.f32(float %57)
  %59 = trunc i64 %58 to i8
  %60 = getelementptr inbounds nuw i8, ptr %.03238.us, i64 2
  store i8 %59, ptr %42, align 1, !tbaa !148
  %61 = getelementptr inbounds nuw i8, ptr %31, i64 20
  %62 = load float, ptr %61, align 4, !tbaa !148
  %63 = fadd nsz float %62, 1.280000e+02
  %64 = tail call i64 @llvm.lrint.i64.f32(float %63)
  %65 = trunc i64 %64 to i8
  %66 = getelementptr inbounds nuw i8, ptr %.039.us, i64 2
  store i8 %65, ptr %48, align 1, !tbaa !148
  %indvars.iv.next43 = add nuw nsw i64 %indvars.iv42, 2
  %67 = icmp samesign ult i64 %indvars.iv.next43, %30
  br i1 %67, label %.lr.ph.split.us, label %._crit_edge, !llvm.loop !167

.lr.ph.split:                                     ; preds = %.lr.ph, %.lr.ph.split
  %indvars.iv = phi i64 [ %indvars.iv.next, %.lr.ph.split ], [ 0, %.lr.ph ]
  %.039 = phi ptr [ %85, %.lr.ph.split ], [ %13, %.lr.ph ]
  %.03238 = phi ptr [ %79, %.lr.ph.split ], [ %20, %.lr.ph ]
  %.03437 = phi ptr [ %91, %.lr.ph.split ], [ %26, %.lr.ph ]
  %68 = getelementptr inbounds nuw %union.ColorFloat, ptr %1, i64 %indvars.iv
  %69 = load float, ptr %68, align 4, !tbaa !148
  %70 = fadd nsz float %69, 1.600000e+01
  %71 = tail call i64 @llvm.lrint.i64.f32(float %70)
  %72 = trunc i64 %71 to i8
  %73 = getelementptr inbounds nuw i8, ptr %.03437, i64 1
  store i8 %72, ptr %.03437, align 1, !tbaa !148
  %74 = getelementptr inbounds nuw i8, ptr %68, i64 4
  %75 = load float, ptr %74, align 4, !tbaa !148
  %76 = fadd nsz float %75, 1.280000e+02
  %77 = tail call i64 @llvm.lrint.i64.f32(float %76)
  %78 = trunc i64 %77 to i8
  %79 = getelementptr inbounds nuw i8, ptr %.03238, i64 1
  store i8 %78, ptr %.03238, align 1, !tbaa !148
  %80 = getelementptr inbounds nuw i8, ptr %68, i64 8
  %81 = load float, ptr %80, align 4, !tbaa !148
  %82 = fadd nsz float %81, 1.280000e+02
  %83 = tail call i64 @llvm.lrint.i64.f32(float %82)
  %84 = trunc i64 %83 to i8
  %85 = getelementptr inbounds nuw i8, ptr %.039, i64 1
  store i8 %84, ptr %.039, align 1, !tbaa !148
  %86 = getelementptr inbounds nuw i8, ptr %68, i64 12
  %87 = load float, ptr %86, align 4, !tbaa !148
  %88 = fadd nsz float %87, 1.600000e+01
  %89 = tail call i64 @llvm.lrint.i64.f32(float %88)
  %90 = trunc i64 %89 to i8
  %91 = getelementptr inbounds nuw i8, ptr %.03437, i64 2
  store i8 %90, ptr %73, align 1, !tbaa !148
  %indvars.iv.next = add nuw nsw i64 %indvars.iv, 2
  %92 = icmp samesign ult i64 %indvars.iv.next, %30
  br i1 %92, label %.lr.ph.split, label %._crit_edge, !llvm.loop !167

._crit_edge:                                      ; preds = %.lr.ph.split, %.lr.ph.split.us, %3
  ret void
}